target datalayout = "e-m:e-p270:32:32-p271:32:32-p272:64:64-i64:64-i128:128-f80:128-n8:16:32:64-S128"
target triple = "x86_64-pc-linux-gnu"

%"class.icu_77::UnicodeString" = type { %"class.icu_77::Replaceable", %"union.icu_77::UnicodeString::StackBufferOrFields" }
%"class.icu_77::Replaceable" = type { %"class.icu_77::UObject" }
%"class.icu_77::UObject" = type { ptr }
%"union.icu_77::UnicodeString::StackBufferOrFields" = type { %struct.anon.0, [32 x i8] }
%struct.anon.0 = type { i16, i32, i32, ptr }
%"class.icu_77::VTimeZone" = type { %"class.icu_77::BasicTimeZone", ptr, ptr, %"class.icu_77::UnicodeString", double, %"class.icu_77::UnicodeString", %"class.icu_77::UnicodeString" }
%"class.icu_77::BasicTimeZone" = type { %"class.icu_77::TimeZone" }
%"class.icu_77::TimeZone" = type { %"class.icu_77::UObject", %"class.icu_77::UnicodeString" }

; Function Attrs: mustprogress uwtable
define noundef i32 @_ZNK6icu_779VTimeZone9getOffsetEhiiihiR10UErrorCode(ptr noundef nonnull align 8 dereferenceable(288) %0, i8 noundef zeroext %1, i32 noundef %2, i32 noundef %3, i32 noundef %4, i8 noundef zeroext %5, i32 noundef %6, ptr noundef nonnull align 4 dereferenceable(4) %7) unnamed_addr #1 align 2 {
  %9 = alloca ptr, align 8
  %10 = alloca i8, align 1
  %11 = alloca i32, align 4
  %12 = alloca i32, align 4
  %13 = alloca i32, align 4
  %14 = alloca i8, align 1
  %15 = alloca i32, align 4
  %16 = alloca ptr, align 8
  store ptr %0, ptr %9, align 8, !tbaa !29
  store i8 %1, ptr %10, align 1, !tbaa !28
  store i32 %2, ptr %11, align 4, !tbaa !18
  store i32 %3, ptr %12, align 4, !tbaa !18
  store i32 %4, ptr %13, align 4, !tbaa !18
  store i8 %5, ptr %14, align 1, !tbaa !28
  store i32 %6, ptr %15, align 4, !tbaa !18
  store ptr %7, ptr %16, align 8, !tbaa !55
  %17 = load ptr, ptr %9, align 8
  %18 = getelementptr inbounds nuw %"class.icu_77::VTimeZone", ptr %17, i32 0, i32 1
  %19 = load ptr, ptr %18, align 8, !tbaa !33
  %20 = load i8, ptr %10, align 1, !tbaa !28
  %21 = load i32, ptr %11, align 4, !tbaa !18
  %22 = load i32, ptr %12, align 4, !tbaa !18
  %23 = load i32, ptr %13, align 4, !tbaa !18
  %24 = load i8, ptr %14, align 1, !tbaa !28
  %25 = load i32, ptr %15, align 4, !tbaa !18
  %26 = load ptr, ptr %16, align 8, !tbaa !55
  %27 = load ptr, ptr %19, align 8, !tbaa !31
  %28 = getelementptr inbounds ptr, ptr %27, i64 4
  %29 = load ptr, ptr %28, align 8
  %30 = call noundef i32 %29(ptr noundef nonnull align 8 dereferenceable(72) %19, i8 noundef zeroext %20, i32 noundef %21, i32 noundef %22, i32 noundef %23, i8 noundef zeroext %24, i32 noundef %25, ptr noundef nonnull align 4 dereferenceable(4) %26)
  ret i32 %30
}